target datalayout = "e-m:e-p270:32:32-p271:32:32-p272:64:64-i64:64-i128:128-f80:128-n8:16:32:64-S128"
target triple = "x86_64-pc-linux-gnu"

%struct.AVRational = type { i32, i32 }
%struct.AVPacket = type { ptr, i64, i64, ptr, i32, i32, i32, ptr, i32, i64, i64, ptr, ptr, %struct.AVRational }

; Function Attrs: nounwind uwtable
define internal i32 @mkv_reformat_av1(ptr noundef %0, ptr noundef %1, ptr noundef %2, ptr noundef %3) #0 {
  %5 = alloca i32, align 4
  %6 = alloca ptr, align 8
  %7 = alloca ptr, align 8
  %8 = alloca ptr, align 8
  %9 = alloca ptr, align 8
  %10 = alloca i32, align 4
  %11 = alloca i32, align 4
  store ptr %0, ptr %6, align 8, !tbaa !26
  store ptr %1, ptr %7, align 8, !tbaa !29
  store ptr %2, ptr %8, align 8, !tbaa !76
  store ptr %3, ptr %9, align 8, !tbaa !265
  call void @llvm.lifetime.start.p0(i64 4, ptr %10) #16
  %12 = load ptr, ptr %7, align 8, !tbaa !29
  %13 = load ptr, ptr %8, align 8, !tbaa !76
  %14 = getelementptr inbounds nuw %struct.AVPacket, ptr %13, i32 0, i32 3
  %15 = load ptr, ptr %14, align 8, !tbaa !132
  %16 = load ptr, ptr %8, align 8, !tbaa !76
  %17 = getelementptr inbounds nuw %struct.AVPacket, ptr %16, i32 0, i32 4
  %18 = load i32, ptr %17, align 8, !tbaa !78
  %19 = call i32 @ff_av1_filter_obus(ptr noundef %12, ptr noundef %15, i32 noundef %18)
  store i32 %19, ptr %10, align 4, !tbaa !30
  %20 = load i32, ptr %10, align 4, !tbaa !30
  %21 = icmp slt i32 %20, 0
  br i1 %21, label %22, label %24

22:                                               ; preds = %4
  %23 = load i32, ptr %10, align 4, !tbaa !30
  store i32 %23, ptr %5, align 4
  store i32 1, ptr %11, align 4
  br label %27

24:                                               ; preds = %4
  %25 = load i32, ptr %10, align 4, !tbaa !30
  %26 = load ptr, ptr %9, align 8, !tbaa !265
  store i32 %25, ptr %26, align 4, !tbaa !30
  store i32 0, ptr %5, align 4
  store i32 1, ptr %11, align 4
  br label %27

27:                                               ; preds = %24, %22
  call void @llvm.lifetime.end.p0(i64 4, ptr %10) #16
  %28 = load i32, ptr %5, align 4
  ret i32 %28
}