; Function Attrs: nounwind uwtable
define internal range(i32 -2147483648, 1) i32 @mkv_reformat_av1(ptr readnone captures(none) %0, ptr noundef %1, ptr noundef readonly captures(none) %2, ptr noundef writeonly captures(none) %3) #0 {
  %5 = getelementptr inbounds nuw i8, ptr %2, i64 24
  %6 = load ptr, ptr %5, align 8, !tbaa !248
  %7 = getelementptr inbounds nuw i8, ptr %2, i64 32
  %8 = load i32, ptr %7, align 8, !tbaa !212
  %9 = tail call i32 @ff_av1_filter_obus(ptr noundef %1, ptr noundef %6, i32 noundef %8) #14
  %10 = icmp slt i32 %9, 0
  br i1 %10, label %12, label %11

11:                                               ; preds = %4
  store i32 %9, ptr %3, align 4, !tbaa !139
  br label %12

12:                                               ; preds = %4, %11
  %.0 = phi i32 [ 0, %11 ], [ %9, %4 ]
  ret i32 %.0
}